; Function Attrs: mustprogress uwtable
define hidden void @_ZN17bv2int_translator13translate_varEP3var(ptr noundef nonnull align 8 dereferenceable(177) %0, ptr noundef nonnull %1) local_unnamed_addr #3 align 2 {
  %3 = getelementptr inbounds nuw i8, ptr %0, i64 16
  %4 = tail call noundef ptr @_ZNK4expr8get_sortEv(ptr noundef nonnull align 4 dereferenceable(16) %1)
  %5 = tail call noundef zeroext i1 @_ZNK14bv_recognizers10is_bv_sortEPK4sort(ptr noundef nonnull align 4 dereferenceable(4) %3, ptr noundef %4)
  br i1 %5, label %6, label %14

6:                                                ; preds = %2
  %7 = load ptr, ptr %0, align 8, !tbaa !65
  %8 = getelementptr inbounds nuw i8, ptr %1, i64 16
  %9 = load i32, ptr %8, align 8, !tbaa !91
  %10 = getelementptr inbounds nuw i8, ptr %0, i64 40
  %11 = load ptr, ptr %10, align 8, !tbaa !94
  %12 = tail call noundef ptr @_ZN11ast_manager7mk_sortEiijPK9parameter(ptr noundef nonnull align 8 dereferenceable(976) %11, i32 noundef 5, i32 noundef 1, i32 noundef 0, ptr noundef null)
  %13 = tail call noundef ptr @_ZN11ast_manager6mk_varEjP4sort(ptr noundef nonnull align 8 dereferenceable(976) %7, i32 noundef %9, ptr noundef %12)
  br label %14

14:                                               ; preds = %2, %6
  %.sink = phi ptr [ %13, %6 ], [ %1, %2 ]
  tail call void @_ZN17bv2int_translator14set_translatedEP4exprS1_(ptr noundef nonnull align 8 dereferenceable(177) %0, ptr noundef nonnull %1, ptr noundef %.sink)
  ret void
}